; Function Attrs: mustprogress uwtable
define dso_local noundef zeroext i1 @_ZN9C_IStream4readEPci(ptr noundef nonnull readonly align 8 captures(none) dereferenceable(48) %0, ptr noundef captures(none) %1, i32 noundef %2) unnamed_addr #8 align 2 personality ptr @__gxx_personality_v0 {
  %4 = sext i32 %2 to i64
  %5 = getelementptr inbounds nuw i8, ptr %0, i64 40
  %6 = load ptr, ptr %5, align 8, !tbaa !4
  %7 = tail call i64 @fread(ptr noundef %1, i64 noundef 1, i64 noundef %4, ptr noundef %6)
  %8 = trunc i64 %7 to i32
  %.not = icmp eq i32 %2, %8
  br i1 %.not, label %18, label %9

9:                                                ; preds = %3
  %10 = load ptr, ptr %5, align 8, !tbaa !4
  %11 = tail call i32 @ferror(ptr noundef %10) #36
  %.not5 = icmp eq i32 %11, 0
  br i1 %.not5, label %13, label %12

12:                                               ; preds = %9
  tail call void @_ZN7Iex_3_413throwErrnoExcEv()
  br label %18

13:                                               ; preds = %9
  %14 = tail call ptr @__cxa_allocate_exception(i64 72) #36
  invoke void @_ZN7Iex_3_48InputExcC1EPKc(ptr noundef nonnull align 8 dereferenceable(72) %14, ptr noundef nonnull @.str.8)
          to label %15 unwind label %16

15:                                               ; preds = %13
  tail call void @__cxa_throw(ptr nonnull %14, ptr nonnull @_ZTIN7Iex_3_48InputExcE, ptr nonnull @_ZN7Iex_3_48InputExcD1Ev) #37
  unreachable

16:                                               ; preds = %13
  %17 = landingpad { ptr, i32 }
          cleanup
  tail call void @__cxa_free_exception(ptr nonnull %14) #36
  resume { ptr, i32 } %17

18:                                               ; preds = %12, %3
  %19 = load ptr, ptr %5, align 8, !tbaa !4
  %20 = tail call i32 @feof(ptr noundef %19) #36
  %.not6 = icmp eq i32 %20, 0
  ret i1 %.not6
}